target datalayout = "e-m:e-p270:32:32-p271:32:32-p272:64:64-i64:64-i128:128-f80:128-n8:16:32:64-S128"
target triple = "x86_64-pc-linux-gnu"

%struct.PROV_RSA_CTX = type { ptr, ptr, i32 }

@.str = private unnamed_addr constant [51 x i8] c"../openssl/providers/implementations/kem/rsa_kem.c\00", align 1
@__func__.rsasve_generate = private unnamed_addr constant [16 x i8] c"rsasve_generate\00", align 1

; Function Attrs: nounwind uwtable
define internal i32 @rsasve_gen_rand_bytes(ptr noundef %0, ptr noundef %1, i32 noundef %2) #0 {
  %4 = alloca i32, align 4
  %5 = alloca ptr, align 8
  %6 = alloca ptr, align 8
  %7 = alloca i32, align 4
  %8 = alloca i32, align 4
  %9 = alloca ptr, align 8
  %10 = alloca ptr, align 8
  %11 = alloca ptr, align 8
  %12 = alloca i32, align 4
  store ptr %0, ptr %5, align 8, !tbaa !24
  store ptr %1, ptr %6, align 8, !tbaa !15
  store i32 %2, ptr %7, align 4, !tbaa !25
  call void @llvm.lifetime.start.p0(i64 4, ptr %8) #5
  store i32 0, ptr %8, align 4, !tbaa !25
  call void @llvm.lifetime.start.p0(i64 8, ptr %9) #5
  call void @llvm.lifetime.start.p0(i64 8, ptr %10) #5
  call void @llvm.lifetime.start.p0(i64 8, ptr %11) #5
  %13 = load ptr, ptr %5, align 8, !tbaa !24
  %14 = call ptr @ossl_rsa_get0_libctx(ptr noundef %13)
  %15 = call ptr @BN_CTX_secure_new_ex(ptr noundef %14)
  store ptr %15, ptr %9, align 8, !tbaa !29
  %16 = load ptr, ptr %9, align 8, !tbaa !29
  %17 = icmp eq ptr %16, null
  br i1 %17, label %18, label %19

18:                                               ; preds = %3
  store i32 0, ptr %4, align 4
  store i32 1, ptr %12, align 4
  br label %60

19:                                               ; preds = %3
  %20 = load ptr, ptr %9, align 8, !tbaa !29
  call void @BN_CTX_start(ptr noundef %20)
  %21 = load ptr, ptr %9, align 8, !tbaa !29
  %22 = call ptr @BN_CTX_get(ptr noundef %21)
  store ptr %22, ptr %11, align 8, !tbaa !31
  %23 = load ptr, ptr %9, align 8, !tbaa !29
  %24 = call ptr @BN_CTX_get(ptr noundef %23)
  store ptr %24, ptr %10, align 8, !tbaa !31
  %25 = load ptr, ptr %10, align 8, !tbaa !31
  %26 = icmp ne ptr %25, null
  br i1 %26, label %27, label %54

27:                                               ; preds = %19
  %28 = load ptr, ptr %11, align 8, !tbaa !31
  %29 = load ptr, ptr %5, align 8, !tbaa !24
  %30 = call ptr @RSA_get0_n(ptr noundef %29)
  %31 = call ptr @BN_copy(ptr noundef %28, ptr noundef %30)
  %32 = icmp ne ptr %31, null
  br i1 %32, label %33, label %54

33:                                               ; preds = %27
  %34 = load ptr, ptr %11, align 8, !tbaa !31
  %35 = call i32 @BN_sub_word(ptr noundef %34, i64 noundef 3)
  %36 = icmp ne i32 %35, 0
  br i1 %36, label %37, label %54

37:                                               ; preds = %33
  %38 = load ptr, ptr %10, align 8, !tbaa !31
  %39 = load ptr, ptr %11, align 8, !tbaa !31
  %40 = load ptr, ptr %9, align 8, !tbaa !29
  %41 = call i32 @BN_priv_rand_range_ex(ptr noundef %38, ptr noundef %39, i32 noundef 0, ptr noundef %40)
  %42 = icmp ne i32 %41, 0
  br i1 %42, label %43, label %54

43:                                               ; preds = %37
  %44 = load ptr, ptr %10, align 8, !tbaa !31
  %45 = call i32 @BN_add_word(ptr noundef %44, i64 noundef 2)
  %46 = icmp ne i32 %45, 0
  br i1 %46, label %47, label %54

47:                                               ; preds = %43
  %48 = load ptr, ptr %10, align 8, !tbaa !31
  %49 = load ptr, ptr %6, align 8, !tbaa !15
  %50 = load i32, ptr %7, align 4, !tbaa !25
  %51 = call i32 @BN_bn2binpad(ptr noundef %48, ptr noundef %49, i32 noundef %50)
  %52 = load i32, ptr %7, align 4, !tbaa !25
  %53 = icmp eq i32 %51, %52
  br label %54

54:                                               ; preds = %47, %43, %37, %33, %27, %19
  %55 = phi i1 [ false, %43 ], [ false, %37 ], [ false, %33 ], [ false, %27 ], [ false, %19 ], [ %53, %47 ]
  %56 = zext i1 %55 to i32
  store i32 %56, ptr %8, align 4, !tbaa !25
  %57 = load ptr, ptr %9, align 8, !tbaa !29
  call void @BN_CTX_end(ptr noundef %57)
  %58 = load ptr, ptr %9, align 8, !tbaa !29
  call void @BN_CTX_free(ptr noundef %58)
  %59 = load i32, ptr %8, align 4, !tbaa !25
  store i32 %59, ptr %4, align 4
  store i32 1, ptr %12, align 4
  br label %60

60:                                               ; preds = %54, %18
  call void @llvm.lifetime.end.p0(i64 8, ptr %11) #5
  call void @llvm.lifetime.end.p0(i64 8, ptr %10) #5
  call void @llvm.lifetime.end.p0(i64 8, ptr %9) #5
  call void @llvm.lifetime.end.p0(i64 4, ptr %8) #5
  %61 = load i32, ptr %4, align 4
  ret i32 %61
}

; Function Attrs: nounwind uwtable
define internal i32 @rsasve_generate(ptr noundef %0, ptr noundef %1, ptr noundef %2, ptr noundef %3, ptr noundef %4) #0 {
  %6 = alloca i32, align 4
  %7 = alloca ptr, align 8
  %8 = alloca ptr, align 8
  %9 = alloca ptr, align 8
  %10 = alloca ptr, align 8
  %11 = alloca ptr, align 8
  %12 = alloca i32, align 4
  %13 = alloca i64, align 8
  %14 = alloca i32, align 4
  store ptr %0, ptr %7, align 8, !tbaa !3
  store ptr %1, ptr %8, align 8, !tbaa !15
  store ptr %2, ptr %9, align 8, !tbaa !17
  store ptr %3, ptr %10, align 8, !tbaa !15
  store ptr %4, ptr %11, align 8, !tbaa !17
  call void @llvm.lifetime.start.p0(i64 4, ptr %12) #5
  call void @llvm.lifetime.start.p0(i64 8, ptr %13) #5
  %15 = load ptr, ptr %7, align 8, !tbaa !3
  %16 = getelementptr inbounds nuw %struct.PROV_RSA_CTX, ptr %15, i32 0, i32 1
  %17 = load ptr, ptr %16, align 8, !tbaa !21
  %18 = call i32 @RSA_size(ptr noundef %17)
  %19 = sext i32 %18 to i64
  store i64 %19, ptr %13, align 8, !tbaa !19
  %20 = load ptr, ptr %8, align 8, !tbaa !15
  %21 = icmp eq ptr %20, null
  br i1 %21, label %22, label %46

22:                                               ; preds = %5
  %23 = load i64, ptr %13, align 8, !tbaa !19
  %24 = icmp eq i64 %23, 0
  br i1 %24, label %25, label %26

25:                                               ; preds = %22
  call void @ERR_new()
  call void @ERR_set_debug(ptr noundef @.str, i32 noundef 289, ptr noundef @__func__.rsasve_generate)
  call void (i32, i32, ptr, ...) @ERR_set_error(i32 noundef 57, i32 noundef 158, ptr noundef null)
  store i32 0, ptr %6, align 4
  store i32 1, ptr %14, align 4
  br label %94

26:                                               ; preds = %22
  %27 = load ptr, ptr %9, align 8, !tbaa !17
  %28 = icmp eq ptr %27, null
  br i1 %28, label %29, label %33

29:                                               ; preds = %26
  %30 = load ptr, ptr %11, align 8, !tbaa !17
  %31 = icmp eq ptr %30, null
  br i1 %31, label %32, label %33

32:                                               ; preds = %29
  store i32 0, ptr %6, align 4
  store i32 1, ptr %14, align 4
  br label %94

33:                                               ; preds = %29, %26
  %34 = load ptr, ptr %9, align 8, !tbaa !17
  %35 = icmp ne ptr %34, null
  br i1 %35, label %36, label %39

36:                                               ; preds = %33
  %37 = load i64, ptr %13, align 8, !tbaa !19
  %38 = load ptr, ptr %9, align 8, !tbaa !17
  store i64 %37, ptr %38, align 8, !tbaa !19
  br label %39

39:                                               ; preds = %36, %33
  %40 = load ptr, ptr %11, align 8, !tbaa !17
  %41 = icmp ne ptr %40, null
  br i1 %41, label %42, label %45

42:                                               ; preds = %39
  %43 = load i64, ptr %13, align 8, !tbaa !19
  %44 = load ptr, ptr %11, align 8, !tbaa !17
  store i64 %43, ptr %44, align 8, !tbaa !19
  br label %45

45:                                               ; preds = %42, %39
  store i32 1, ptr %6, align 4
  store i32 1, ptr %14, align 4
  br label %94

46:                                               ; preds = %5
  %47 = load ptr, ptr %9, align 8, !tbaa !17
  %48 = icmp ne ptr %47, null
  br i1 %48, label %49, label %55

49:                                               ; preds = %46
  %50 = load ptr, ptr %9, align 8, !tbaa !17
  %51 = load i64, ptr %50, align 8, !tbaa !19
  %52 = load i64, ptr %13, align 8, !tbaa !19
  %53 = icmp ult i64 %51, %52
  br i1 %53, label %54, label %55

54:                                               ; preds = %49
  call void @ERR_new()
  call void @ERR_set_debug(ptr noundef @.str, i32 noundef 307, ptr noundef @__func__.rsasve_generate)
  call void (i32, i32, ptr, ...) @ERR_set_error(i32 noundef 57, i32 noundef 217, ptr noundef null)
  store i32 0, ptr %6, align 4
  store i32 1, ptr %14, align 4
  br label %94

55:                                               ; preds = %49, %46
  %56 = load ptr, ptr %7, align 8, !tbaa !3
  %57 = getelementptr inbounds nuw %struct.PROV_RSA_CTX, ptr %56, i32 0, i32 1
  %58 = load ptr, ptr %57, align 8, !tbaa !21
  %59 = load ptr, ptr %10, align 8, !tbaa !15
  %60 = load i64, ptr %13, align 8, !tbaa !19
  %61 = trunc i64 %60 to i32
  %62 = call i32 @rsasve_gen_rand_bytes(ptr noundef %58, ptr noundef %59, i32 noundef %61)
  %63 = icmp ne i32 %62, 0
  br i1 %63, label %65, label %64

64:                                               ; preds = %55
  store i32 0, ptr %6, align 4
  store i32 1, ptr %14, align 4
  br label %94

65:                                               ; preds = %55
  %66 = load i64, ptr %13, align 8, !tbaa !19
  %67 = trunc i64 %66 to i32
  %68 = load ptr, ptr %10, align 8, !tbaa !15
  %69 = load ptr, ptr %8, align 8, !tbaa !15
  %70 = load ptr, ptr %7, align 8, !tbaa !3
  %71 = getelementptr inbounds nuw %struct.PROV_RSA_CTX, ptr %70, i32 0, i32 1
  %72 = load ptr, ptr %71, align 8, !tbaa !21
  %73 = call i32 @RSA_public_encrypt(i32 noundef %67, ptr noundef %68, ptr noundef %69, ptr noundef %72, i32 noundef 3)
  store i32 %73, ptr %12, align 4, !tbaa !25
  %74 = load i32, ptr %12, align 4, !tbaa !25
  %75 = icmp ne i32 %74, 0
  br i1 %75, label %76, label %89

76:                                               ; preds = %65
  store i32 1, ptr %12, align 4, !tbaa !25
  %77 = load ptr, ptr %9, align 8, !tbaa !17
  %78 = icmp ne ptr %77, null
  br i1 %78, label %79, label %82

79:                                               ; preds = %76
  %80 = load i64, ptr %13, align 8, !tbaa !19
  %81 = load ptr, ptr %9, align 8, !tbaa !17
  store i64 %80, ptr %81, align 8, !tbaa !19
  br label %82

82:                                               ; preds = %79, %76
  %83 = load ptr, ptr %11, align 8, !tbaa !17
  %84 = icmp ne ptr %83, null
  br i1 %84, label %85, label %88

85:                                               ; preds = %82
  %86 = load i64, ptr %13, align 8, !tbaa !19
  %87 = load ptr, ptr %11, align 8, !tbaa !17
  store i64 %86, ptr %87, align 8, !tbaa !19
  br label %88

88:                                               ; preds = %85, %82
  br label %92

89:                                               ; preds = %65
  %90 = load ptr, ptr %10, align 8, !tbaa !15
  %91 = load i64, ptr %13, align 8, !tbaa !19
  call void @OPENSSL_cleanse(ptr noundef %90, i64 noundef %91)
  br label %92

92:                                               ; preds = %89, %88
  %93 = load i32, ptr %12, align 4, !tbaa !25
  store i32 %93, ptr %6, align 4
  store i32 1, ptr %14, align 4
  br label %94

94:                                               ; preds = %92, %64, %54, %45, %32, %25
  call void @llvm.lifetime.end.p0(i64 8, ptr %13) #5
  call void @llvm.lifetime.end.p0(i64 4, ptr %12) #5
  %95 = load i32, ptr %6, align 4
  ret i32 %95
}

; Function Attrs: nounwind uwtable
define internal i32 @rsakem_generate(ptr noundef %0, ptr noundef %1, ptr noundef %2, ptr noundef %3, ptr noundef %4) #0 {
  %6 = alloca i32, align 4
  %7 = alloca ptr, align 8
  %8 = alloca ptr, align 8
  %9 = alloca ptr, align 8
  %10 = alloca ptr, align 8
  %11 = alloca ptr, align 8
  %12 = alloca ptr, align 8
  %13 = alloca i32, align 4
  store ptr %0, ptr %7, align 8, !tbaa !3
  store ptr %1, ptr %8, align 8, !tbaa !15
  store ptr %2, ptr %9, align 8, !tbaa !17
  store ptr %3, ptr %10, align 8, !tbaa !15
  store ptr %4, ptr %11, align 8, !tbaa !17
  call void @llvm.lifetime.start.p0(i64 8, ptr %12) #5
  %14 = load ptr, ptr %7, align 8, !tbaa !3
  store ptr %14, ptr %12, align 8, !tbaa !3
  %15 = call i32 @ossl_prov_is_running()
  %16 = icmp ne i32 %15, 0
  br i1 %16, label %18, label %17

17:                                               ; preds = %5
  store i32 0, ptr %6, align 4
  store i32 1, ptr %13, align 4
  br label %30

18:                                               ; preds = %5
  %19 = load ptr, ptr %12, align 8, !tbaa !3
  %20 = getelementptr inbounds nuw %struct.PROV_RSA_CTX, ptr %19, i32 0, i32 2
  %21 = load i32, ptr %20, align 8, !tbaa !12
  switch i32 %21, label %29 [
    i32 0, label %22
  ]

22:                                               ; preds = %18
  %23 = load ptr, ptr %12, align 8, !tbaa !3
  %24 = load ptr, ptr %8, align 8, !tbaa !15
  %25 = load ptr, ptr %9, align 8, !tbaa !17
  %26 = load ptr, ptr %10, align 8, !tbaa !15
  %27 = load ptr, ptr %11, align 8, !tbaa !17
  %28 = call i32 @rsasve_generate(ptr noundef %23, ptr noundef %24, ptr noundef %25, ptr noundef %26, ptr noundef %27)
  store i32 %28, ptr %6, align 4
  store i32 1, ptr %13, align 4
  br label %30

29:                                               ; preds = %18
  store i32 -2, ptr %6, align 4
  store i32 1, ptr %13, align 4
  br label %30

30:                                               ; preds = %29, %22, %17
  call void @llvm.lifetime.end.p0(i64 8, ptr %12) #5
  %31 = load i32, ptr %6, align 4
  ret i32 %31
}