; Function Attrs: nounwind uwtable
define internal range(i32 -2, 2) i32 @rsakem_generate(ptr noundef readonly captures(none) %0, ptr noundef %1, ptr noundef captures(address_is_null) %2, ptr noundef %3, ptr noundef writeonly captures(address_is_null) %4) #0 {
  %6 = tail call i32 @ossl_prov_is_running() #5
  %.not = icmp eq i32 %6, 0
  br i1 %.not, label %rsasve_generate.exit, label %7

7:                                                ; preds = %5
  %8 = getelementptr inbounds nuw i8, ptr %0, i64 16
  %9 = load i32, ptr %8, align 8, !tbaa !11
  %cond = icmp eq i32 %9, 0
  br i1 %cond, label %10, label %rsasve_generate.exit

10:                                               ; preds = %7
  %11 = getelementptr inbounds nuw i8, ptr %0, i64 8
  %12 = load ptr, ptr %11, align 8, !tbaa !12
  %13 = tail call i32 @RSA_size(ptr noundef %12) #5
  %14 = sext i32 %13 to i64
  %15 = icmp eq ptr %1, null
  br i1 %15, label %16, label %26

16:                                               ; preds = %10
  %17 = icmp eq i32 %13, 0
  br i1 %17, label %18, label %19

18:                                               ; preds = %16
  tail call void @ERR_new() #5
  tail call void @ERR_set_debug(ptr noundef nonnull @.str, i32 noundef 289, ptr noundef nonnull @__func__.rsasve_generate) #5
  tail call void (i32, i32, ptr, ...) @ERR_set_error(i32 noundef 57, i32 noundef 158, ptr noundef null) #5
  br label %rsasve_generate.exit

19:                                               ; preds = %16
  %20 = icmp eq ptr %2, null
  %21 = icmp eq ptr %4, null
  %or.cond.i = and i1 %20, %21
  br i1 %or.cond.i, label %rsasve_generate.exit, label %22

22:                                               ; preds = %19
  br i1 %20, label %24, label %23

23:                                               ; preds = %22
  store i64 %14, ptr %2, align 8, !tbaa !13
  br label %24

24:                                               ; preds = %23, %22
  br i1 %21, label %rsasve_generate.exit, label %25

25:                                               ; preds = %24
  store i64 %14, ptr %4, align 8, !tbaa !13
  br label %rsasve_generate.exit

26:                                               ; preds = %10
  %.not.i = icmp eq ptr %2, null
  br i1 %.not.i, label %31, label %27

27:                                               ; preds = %26
  %28 = load i64, ptr %2, align 8, !tbaa !13
  %29 = icmp ult i64 %28, %14
  br i1 %29, label %30, label %31

30:                                               ; preds = %27
  tail call void @ERR_new() #5
  tail call void @ERR_set_debug(ptr noundef nonnull @.str, i32 noundef 307, ptr noundef nonnull @__func__.rsasve_generate) #5
  tail call void (i32, i32, ptr, ...) @ERR_set_error(i32 noundef 57, i32 noundef 217, ptr noundef null) #5
  br label %rsasve_generate.exit

31:                                               ; preds = %27, %26
  %32 = load ptr, ptr %11, align 8, !tbaa !12
  %33 = tail call ptr @ossl_rsa_get0_libctx(ptr noundef %32) #5
  %34 = tail call ptr @BN_CTX_secure_new_ex(ptr noundef %33) #5
  %35 = icmp eq ptr %34, null
  br i1 %35, label %rsasve_generate.exit, label %36

36:                                               ; preds = %31
  tail call void @BN_CTX_start(ptr noundef nonnull %34) #5
  %37 = tail call ptr @BN_CTX_get(ptr noundef nonnull %34) #5
  %38 = tail call ptr @BN_CTX_get(ptr noundef nonnull %34) #5
  %.not.i.i = icmp eq ptr %38, null
  br i1 %.not.i.i, label %rsasve_gen_rand_bytes.exit.thread.critedge.i, label %39

39:                                               ; preds = %36
  %40 = tail call ptr @RSA_get0_n(ptr noundef %32) #5
  %41 = tail call ptr @BN_copy(ptr noundef %37, ptr noundef %40) #5
  %.not22.i.i = icmp eq ptr %41, null
  br i1 %.not22.i.i, label %rsasve_gen_rand_bytes.exit.thread.critedge.i, label %42

42:                                               ; preds = %39
  %43 = tail call i32 @BN_sub_word(ptr noundef %37, i64 noundef 3) #5
  %.not23.i.i = icmp eq i32 %43, 0
  br i1 %.not23.i.i, label %rsasve_gen_rand_bytes.exit.thread.critedge.i, label %44

44:                                               ; preds = %42
  %45 = tail call i32 @BN_priv_rand_range_ex(ptr noundef nonnull %38, ptr noundef %37, i32 noundef 0, ptr noundef nonnull %34) #5
  %.not24.i.i = icmp eq i32 %45, 0
  br i1 %.not24.i.i, label %rsasve_gen_rand_bytes.exit.thread.critedge.i, label %46

46:                                               ; preds = %44
  %47 = tail call i32 @BN_add_word(ptr noundef nonnull %38, i64 noundef 2) #5
  %.not25.i.i = icmp eq i32 %47, 0
  br i1 %.not25.i.i, label %rsasve_gen_rand_bytes.exit.thread.critedge.i, label %rsasve_gen_rand_bytes.exit.i

rsasve_gen_rand_bytes.exit.i:                     ; preds = %46
  %48 = tail call i32 @BN_bn2binpad(ptr noundef nonnull %38, ptr noundef %3, i32 noundef %13) #5
  %.not46.i = icmp eq i32 %48, %13
  tail call void @BN_CTX_end(ptr noundef nonnull %34) #5
  tail call void @BN_CTX_free(ptr noundef nonnull %34) #5
  br i1 %.not46.i, label %49, label %rsasve_generate.exit

49:                                               ; preds = %rsasve_gen_rand_bytes.exit.i
  %50 = load ptr, ptr %11, align 8, !tbaa !12
  %51 = tail call i32 @RSA_public_encrypt(i32 noundef %13, ptr noundef %3, ptr noundef nonnull %1, ptr noundef %50, i32 noundef 3) #5
  %.not40.i = icmp eq i32 %51, 0
  br i1 %.not40.i, label %56, label %52

52:                                               ; preds = %49
  br i1 %.not.i, label %54, label %53

53:                                               ; preds = %52
  store i64 %14, ptr %2, align 8, !tbaa !13
  br label %54

54:                                               ; preds = %53, %52
  %.not41.i = icmp eq ptr %4, null
  br i1 %.not41.i, label %rsasve_generate.exit, label %55

55:                                               ; preds = %54
  store i64 %14, ptr %4, align 8, !tbaa !13
  br label %rsasve_generate.exit

56:                                               ; preds = %49
  tail call void @OPENSSL_cleanse(ptr noundef %3, i64 noundef %14) #5
  br label %rsasve_generate.exit

rsasve_gen_rand_bytes.exit.thread.critedge.i:     ; preds = %46, %44, %42, %39, %36
  tail call void @BN_CTX_end(ptr noundef nonnull %34) #5
  tail call void @BN_CTX_free(ptr noundef nonnull %34) #5
  br label %rsasve_generate.exit

rsasve_generate.exit:                             ; preds = %rsasve_gen_rand_bytes.exit.thread.critedge.i, %56, %55, %54, %rsasve_gen_rand_bytes.exit.i, %31, %30, %25, %24, %19, %18, %7, %5
  %.0 = phi i32 [ 0, %5 ], [ -2, %7 ], [ 0, %18 ], [ 0, %30 ], [ 0, %19 ], [ 1, %25 ], [ 1, %24 ], [ 0, %rsasve_gen_rand_bytes.exit.i ], [ 1, %55 ], [ 1, %54 ], [ 0, %56 ], [ 0, %31 ], [ 0, %rsasve_gen_rand_bytes.exit.thread.critedge.i ]
  ret i32 %.0
}